; Function Attrs: null_pointer_is_valid sspstrong uwtable
define internal fastcc range(i32 0, 311) i32 @dissect_reply_afp_open_vol(ptr noundef %0, ptr noundef %1) unnamed_addr #1 {
  %.not = icmp eq ptr %1, null
  br i1 %.not, label %9, label %3

3:                                                ; preds = %2
  %4 = load i32, ptr @hf_afp_vol_bitmap, align 4
  %5 = load i32, ptr @ett_afp_vol_bitmap, align 4
  %6 = tail call ptr @proto_tree_add_bitmask(ptr noundef nonnull %1, ptr noundef %0, i32 noundef 0, i32 noundef %4, i32 noundef %5, ptr noundef nonnull @decode_vol_bitmap.bitmaps, i32 noundef 0)
  %7 = tail call zeroext i16 @tvb_get_ntohs(ptr noundef %0, i32 noundef 0)
  %8 = tail call fastcc i32 @parse_vol_bitmap(ptr noundef nonnull %1, ptr noundef %0, i32 noundef 2, i16 noundef zeroext %7)
  br label %9

9:                                                ; preds = %2, %3
  %.0 = phi i32 [ %8, %3 ], [ 0, %2 ]
  ret i32 %.0
}